target datalayout = "e-m:e-p270:32:32-p271:32:32-p272:64:64-i64:64-i128:128-f80:128-n8:16:32:64-S128"
target triple = "x86_64-pc-linux-gnu"

%struct.expert_field = type { i32, i32 }

@hf_hdr_name_value = internal global i32 0, align 4
@ei_wsp_oversized_uintvar = internal global %struct.expert_field zeroinitializer, align 4
@ei_wsp_header_invalid_value = internal global %struct.expert_field zeroinitializer, align 4
@hf_hdr_content_md5 = internal global i32 0, align 4
@ett_content_md5 = internal global i32 0, align 4
@.str.1078 = private unnamed_addr constant [12 x i8] c"Content-md5\00", align 1

; Function Attrs: null_pointer_is_valid sspstrong uwtable
define internal i32 @wkh_content_md5(ptr noundef %0, ptr noundef %1, i32 noundef %2, ptr noundef %3) #1 {
  %5 = alloca ptr, align 8
  %6 = alloca ptr, align 8
  %7 = alloca i32, align 4
  %8 = alloca ptr, align 8
  %9 = alloca i8, align 1
  %10 = alloca ptr, align 8
  %11 = alloca ptr, align 8
  %12 = alloca i32, align 4
  %13 = alloca i8, align 1
  %14 = alloca i32, align 4
  %15 = alloca i32, align 4
  %16 = alloca i32, align 4
  %17 = alloca i32, align 4
  store ptr %0, ptr %5, align 8
  store ptr %1, ptr %6, align 8
  store i32 %2, ptr %7, align 4
  store ptr %3, ptr %8, align 8
  call void @llvm.lifetime.start.p0(i64 1, ptr %9) #8
  store i8 0, ptr %9, align 1
  call void @llvm.lifetime.start.p0(i64 8, ptr %10) #8
  call void @llvm.lifetime.start.p0(i64 8, ptr %11) #8
  call void @llvm.lifetime.start.p0(i64 4, ptr %12) #8
  %18 = load i32, ptr %7, align 4
  %19 = add i32 %18, 1
  store i32 %19, ptr %12, align 4
  call void @llvm.lifetime.start.p0(i64 1, ptr %13) #8
  %20 = load ptr, ptr %6, align 8
  %21 = load i32, ptr %12, align 4
  %22 = call zeroext i8 @tvb_get_uint8(ptr noundef %20, i32 noundef %21)
  store i8 %22, ptr %13, align 1
  call void @llvm.lifetime.start.p0(i64 4, ptr %14) #8
  %23 = load i32, ptr %12, align 4
  store i32 %23, ptr %14, align 4
  call void @llvm.lifetime.start.p0(i64 4, ptr %15) #8
  call void @llvm.lifetime.start.p0(i64 4, ptr %16) #8
  call void @llvm.lifetime.start.p0(i64 4, ptr %17) #8
  %24 = load ptr, ptr %5, align 8
  %25 = load ptr, ptr %6, align 8
  %26 = load i32, ptr %7, align 4
  %27 = load i32, ptr %14, align 4
  %28 = load i32, ptr %7, align 4
  %29 = sub i32 %27, %28
  %30 = load i32, ptr @ett_content_md5, align 4
  %31 = call ptr @proto_tree_add_subtree(ptr noundef %24, ptr noundef %25, i32 noundef %26, i32 noundef %29, i32 noundef %30, ptr noundef %11, ptr noundef @.str.1078)
  store ptr %31, ptr %10, align 8
  %32 = load ptr, ptr %10, align 8
  %33 = load i32, ptr @hf_hdr_name_value, align 4
  %34 = load ptr, ptr %6, align 8
  %35 = load i32, ptr %7, align 4
  %36 = call ptr @proto_tree_add_item(ptr noundef %32, i32 noundef %33, ptr noundef %34, i32 noundef %35, i32 noundef 1, i32 noundef 0)
  %37 = load i8, ptr %13, align 1
  %38 = zext i8 %37 to i32
  %39 = and i32 %38, 128
  %40 = icmp ne i32 %39, 0
  br i1 %40, label %41, label %44

41:                                               ; preds = %4
  %42 = load i32, ptr %14, align 4
  %43 = add i32 %42, 1
  store i32 %43, ptr %14, align 4
  br label %97

44:                                               ; preds = %4
  %45 = load i8, ptr %13, align 1
  %46 = zext i8 %45 to i32
  %47 = icmp eq i32 %46, 0
  br i1 %47, label %52, label %48

48:                                               ; preds = %44
  %49 = load i8, ptr %13, align 1
  %50 = zext i8 %49 to i32
  %51 = icmp sge i32 %50, 32
  br i1 %51, label %52, label %60

52:                                               ; preds = %48, %44
  %53 = call ptr @wmem_packet_scope()
  %54 = load ptr, ptr %6, align 8
  %55 = load i32, ptr %12, align 4
  %56 = call ptr @tvb_get_stringz_enc(ptr noundef %53, ptr noundef %54, i32 noundef %55, ptr noundef %15, i32 noundef 0)
  %57 = load i32, ptr %12, align 4
  %58 = load i32, ptr %15, align 4
  %59 = add i32 %57, %58
  store i32 %59, ptr %14, align 4
  br label %96

60:                                               ; preds = %48
  %61 = load i8, ptr %13, align 1
  %62 = zext i8 %61 to i32
  %63 = icmp eq i32 %62, 31
  br i1 %63, label %64, label %72

64:                                               ; preds = %60
  %65 = load ptr, ptr %6, align 8
  %66 = load i32, ptr %12, align 4
  %67 = add i32 %66, 1
  %68 = load ptr, ptr %8, align 8
  %69 = call i32 @tvb_get_uintvar(ptr noundef %65, i32 noundef %67, ptr noundef %16, ptr noundef %68, ptr noundef @ei_wsp_oversized_uintvar)
  store i32 %69, ptr %15, align 4
  %70 = load i32, ptr %16, align 4
  %71 = add i32 %70, 1
  store i32 %71, ptr %16, align 4
  br label %77

72:                                               ; preds = %60
  %73 = load ptr, ptr %6, align 8
  %74 = load i32, ptr %14, align 4
  %75 = call zeroext i8 @tvb_get_uint8(ptr noundef %73, i32 noundef %74)
  %76 = zext i8 %75 to i32
  store i32 %76, ptr %15, align 4
  store i32 1, ptr %16, align 4
  br label %77

77:                                               ; preds = %72, %64
  %78 = load i32, ptr %16, align 4
  %79 = load i32, ptr %15, align 4
  %80 = add i32 %78, %79
  %81 = load i32, ptr %14, align 4
  %82 = add i32 %81, %80
  store i32 %82, ptr %14, align 4
  %83 = load i32, ptr %12, align 4
  %84 = load i32, ptr %16, align 4
  %85 = add i32 %83, %84
  store i32 %85, ptr %17, align 4
  %86 = load i32, ptr %15, align 4
  %87 = icmp eq i32 %86, 16
  br i1 %87, label %88, label %95

88:                                               ; preds = %77
  %89 = load ptr, ptr %5, align 8
  %90 = load i32, ptr @hf_hdr_content_md5, align 4
  %91 = load ptr, ptr %6, align 8
  %92 = load i32, ptr %17, align 4
  %93 = load i32, ptr %15, align 4
  %94 = call ptr @proto_tree_add_item(ptr noundef %89, i32 noundef %90, ptr noundef %91, i32 noundef %92, i32 noundef %93, i32 noundef 0)
  store i8 1, ptr %9, align 1
  br label %95

95:                                               ; preds = %88, %77
  br label %96

96:                                               ; preds = %95, %52
  br label %97

97:                                               ; preds = %96, %41
  %98 = load i8, ptr %9, align 1, !range !6, !noundef !7
  %99 = trunc i8 %98 to i1
  br i1 %99, label %104, label %100

100:                                              ; preds = %97
  %101 = load ptr, ptr %8, align 8
  %102 = load ptr, ptr %11, align 8
  %103 = call ptr @expert_add_info(ptr noundef %101, ptr noundef %102, ptr noundef @ei_wsp_header_invalid_value)
  br label %104

104:                                              ; preds = %100, %97
  %105 = load i32, ptr %14, align 4
  call void @llvm.lifetime.end.p0(i64 4, ptr %17) #8
  call void @llvm.lifetime.end.p0(i64 4, ptr %16) #8
  call void @llvm.lifetime.end.p0(i64 4, ptr %15) #8
  call void @llvm.lifetime.end.p0(i64 4, ptr %14) #8
  call void @llvm.lifetime.end.p0(i64 1, ptr %13) #8
  call void @llvm.lifetime.end.p0(i64 4, ptr %12) #8
  call void @llvm.lifetime.end.p0(i64 8, ptr %11) #8
  call void @llvm.lifetime.end.p0(i64 8, ptr %10) #8
  call void @llvm.lifetime.end.p0(i64 1, ptr %9) #8
  ret i32 %105
}