; Function Attrs: null_pointer_is_valid sspstrong uwtable
define internal i32 @wkh_content_md5(ptr noundef %0, ptr noundef %1, i32 noundef %2, ptr noundef %3) #1 {
  %5 = alloca ptr, align 8
  %6 = alloca i32, align 4
  %7 = alloca i32, align 4
  call void @llvm.lifetime.start.p0(i64 8, ptr nonnull %5) #5
  %8 = add i32 %2, 1
  %9 = tail call zeroext i8 @tvb_get_uint8(ptr noundef %1, i32 noundef %8)
  call void @llvm.lifetime.start.p0(i64 4, ptr nonnull %6) #5
  call void @llvm.lifetime.start.p0(i64 4, ptr nonnull %7) #5
  %10 = load i32, ptr @ett_content_md5, align 4
  %11 = call ptr @proto_tree_add_subtree(ptr noundef %0, ptr noundef %1, i32 noundef %2, i32 noundef 1, i32 noundef %10, ptr noundef nonnull %5, ptr noundef nonnull @.str.1078)
  %12 = load i32, ptr @hf_hdr_name_value, align 4
  %13 = call ptr @proto_tree_add_item(ptr noundef %11, i32 noundef %12, ptr noundef %1, i32 noundef %2, i32 noundef 1, i32 noundef 0)
  %.not = icmp sgt i8 %9, -1
  br i1 %.not, label %16, label %14

14:                                               ; preds = %4
  %15 = add i32 %2, 2
  br label %40

16:                                               ; preds = %4
  %17 = add nsw i8 %9, -32
  %or.cond = icmp ult i8 %17, -31
  br i1 %or.cond, label %18, label %23

18:                                               ; preds = %16
  %19 = call ptr @wmem_packet_scope()
  %20 = call ptr @tvb_get_stringz_enc(ptr noundef %19, ptr noundef %1, i32 noundef %8, ptr noundef nonnull %6, i32 noundef 0)
  %21 = load i32, ptr %6, align 4
  %22 = add i32 %21, %8
  br label %40

23:                                               ; preds = %16
  %24 = icmp eq i8 %9, 31
  br i1 %24, label %25, label %30

25:                                               ; preds = %23
  %26 = add i32 %2, 2
  %27 = call i32 @tvb_get_uintvar(ptr noundef %1, i32 noundef %26, ptr noundef nonnull %7, ptr noundef %3, ptr noundef nonnull @ei_wsp_oversized_uintvar)
  %28 = load i32, ptr %7, align 4
  %29 = add i32 %28, 1
  br label %33

30:                                               ; preds = %23
  %31 = call zeroext i8 @tvb_get_uint8(ptr noundef %1, i32 noundef %8)
  %32 = zext i8 %31 to i32
  br label %33

33:                                               ; preds = %30, %25
  %.sink = phi i32 [ %27, %25 ], [ %32, %30 ]
  %storemerge = phi i32 [ %29, %25 ], [ 1, %30 ]
  store i32 %.sink, ptr %6, align 4
  store i32 %storemerge, ptr %7, align 4
  %34 = add i32 %storemerge, %8
  %35 = add i32 %34, %.sink
  %36 = icmp eq i32 %.sink, 16
  br i1 %36, label %37, label %40

37:                                               ; preds = %33
  %38 = load i32, ptr @hf_hdr_content_md5, align 4
  %39 = call ptr @proto_tree_add_item(ptr noundef %0, i32 noundef %38, ptr noundef %1, i32 noundef %34, i32 noundef 16, i32 noundef 0)
  br label %43

40:                                               ; preds = %14, %18, %33
  %.034.ph = phi i32 [ %35, %33 ], [ %22, %18 ], [ %15, %14 ]
  %41 = load ptr, ptr %5, align 8
  %42 = call ptr @expert_add_info(ptr noundef %3, ptr noundef %41, ptr noundef nonnull @ei_wsp_header_invalid_value)
  br label %43

43:                                               ; preds = %37, %40
  %.03440 = phi i32 [ %.034.ph, %40 ], [ %35, %37 ]
  call void @llvm.lifetime.end.p0(i64 4, ptr nonnull %7) #5
  call void @llvm.lifetime.end.p0(i64 4, ptr nonnull %6) #5
  call void @llvm.lifetime.end.p0(i64 8, ptr nonnull %5) #5
  ret i32 %.03440
}